target datalayout = "e-m:e-p270:32:32-p271:32:32-p272:64:64-i64:64-i128:128-f80:128-n8:16:32:64-S128"
target triple = "x86_64-pc-linux-gnu"

%"struct.pkpy::FileIO" = type <{ ptr, i8, [7 x i8] }>

; Function Attrs: mustprogress uwtable
define void @_ZN4pkpy6FileIO5closeEv(ptr noundef nonnull align 8 dereferenceable(9) %0) #4 align 2 {
  %2 = alloca ptr, align 8
  store ptr %0, ptr %2, align 8
  %3 = load ptr, ptr %2, align 8
  %4 = getelementptr inbounds %"struct.pkpy::FileIO", ptr %3, i32 0, i32 0
  %5 = load ptr, ptr %4, align 8
  %6 = icmp eq ptr %5, null
  br i1 %6, label %7, label %8

7:                                                ; preds = %1
  br label %13

8:                                                ; preds = %1
  %9 = getelementptr inbounds %"struct.pkpy::FileIO", ptr %3, i32 0, i32 0
  %10 = load ptr, ptr %9, align 8
  %11 = call i32 @fclose(ptr noundef %10)
  %12 = getelementptr inbounds %"struct.pkpy::FileIO", ptr %3, i32 0, i32 0
  store ptr null, ptr %12, align 8
  br label %13

13:                                               ; preds = %8, %7
  ret void
}