; Function Attrs: mustprogress nofree nounwind uwtable
define void @_ZN4pkpy6FileIO5closeEv(ptr noundef nonnull align 8 captures(none) dereferenceable(9) %0) local_unnamed_addr #9 align 2 {
  %2 = load ptr, ptr %0, align 8
  %3 = icmp eq ptr %2, null
  br i1 %3, label %6, label %4

4:                                                ; preds = %1
  %5 = tail call i32 @fclose(ptr noundef nonnull %2)
  store ptr null, ptr %0, align 8
  br label %6

6:                                                ; preds = %1, %4
  ret void
}